; Function Attrs: mustprogress uwtable
define internal fastcc void @_ZN4absl19str_format_internal12_GLOBAL__N_111EscCharImplB5cxx11Ei(ptr noalias align 8 %agg.result, i32 noundef %v) unnamed_addr #3 personality ptr @__gxx_personality_v0 {
entry:
  %buf = alloca [64 x i8], align 16
  %ref.tmp = alloca %"class.std::allocator", align 1
  %conv = trunc i32 %v to i8
  %0 = add i8 %conv, -32
  %1 = icmp ult i8 %0, 95
  br i1 %1, label %cond.true, label %cond.false

cond.true:                                        ; preds = %entry
  %call1 = call i32 (ptr, i64, ptr, ...) @snprintf(ptr noundef nonnull dereferenceable(1) %buf, i64 noundef 64, ptr noundef nonnull @.str.796, i32 noundef %v) #28
  br label %cond.end

cond.false:                                       ; preds = %entry
  %conv4 = and i32 %v, 255
  %call5 = call i32 (ptr, i64, ptr, ...) @snprintf(ptr noundef nonnull dereferenceable(1) %buf, i64 noundef 64, ptr noundef nonnull @.str.797, i32 noundef 2, i32 noundef %conv4) #28
  br label %cond.end

cond.end:                                         ; preds = %cond.false, %cond.true
  %cond = phi i32 [ %call1, %cond.true ], [ %call5, %cond.false ]
  %conv7 = sext i32 %cond to i64
  call void @_ZNSaIcEC1Ev(ptr noundef nonnull align 1 dereferenceable(1) %ref.tmp) #28
  invoke void @_ZNSt7__cxx1112basic_stringIcSt11char_traitsIcESaIcEEC1EPKcmRKS3_(ptr noundef nonnull align 8 dereferenceable(32) %agg.result, ptr noundef nonnull %buf, i64 noundef %conv7, ptr noundef nonnull align 1 dereferenceable(1) %ref.tmp)
          to label %invoke.cont unwind label %lpad

invoke.cont:                                      ; preds = %cond.end
  call void @_ZNSaIcED1Ev(ptr noundef nonnull align 1 dereferenceable(1) %ref.tmp) #28
  ret void

lpad:                                             ; preds = %cond.end
  %2 = landingpad { ptr, i32 }
          cleanup
  call void @_ZNSaIcED1Ev(ptr noundef nonnull align 1 dereferenceable(1) %ref.tmp) #28
  resume { ptr, i32 } %2
}